target datalayout = "e-m:e-p270:32:32-p271:32:32-p272:64:64-i64:64-i128:128-f80:128-n8:16:32:64-S128"
target triple = "x86_64-pc-linux-gnu"

%struct._fragment_head = type { ptr, ptr, i32, i32, i32, i32, i32, i32, i32, i8, i32, ptr, ptr }
%struct._fragment_item = type { ptr, i32, i32, i32, i32, ptr }

; Function Attrs: nounwind null_pointer_is_valid sspstrong uwtable
define internal void @update_first_gap(ptr noundef %0, ptr noundef %1, i1 noundef zeroext %2) #0 {
  %4 = alloca ptr, align 8
  %5 = alloca ptr, align 8
  %6 = alloca i8, align 1
  %7 = alloca i32, align 4
  %8 = alloca ptr, align 8
  %9 = alloca i32, align 4
  %10 = alloca i32, align 4
  store ptr %0, ptr %4, align 8
  store ptr %1, ptr %5, align 8
  %11 = zext i1 %2 to i8
  store i8 %11, ptr %6, align 1
  call void @llvm.lifetime.start.p0(i64 4, ptr %7) #16
  %12 = load ptr, ptr %5, align 8
  %13 = getelementptr inbounds nuw %struct._fragment_item, ptr %12, i32 0, i32 2
  %14 = load i32, ptr %13, align 4
  %15 = load ptr, ptr %5, align 8
  %16 = getelementptr inbounds nuw %struct._fragment_item, ptr %15, i32 0, i32 3
  %17 = load i32, ptr %16, align 8
  %18 = add i32 %14, %17
  store i32 %18, ptr %7, align 4
  call void @llvm.lifetime.start.p0(i64 8, ptr %8) #16
  call void @llvm.lifetime.start.p0(i64 4, ptr %9) #16
  %19 = load ptr, ptr %5, align 8
  %20 = getelementptr inbounds nuw %struct._fragment_item, ptr %19, i32 0, i32 2
  %21 = load i32, ptr %20, align 4
  %22 = load ptr, ptr %4, align 8
  %23 = getelementptr inbounds nuw %struct._fragment_head, ptr %22, i32 0, i32 3
  %24 = load i32, ptr %23, align 4
  %25 = icmp ugt i32 %21, %24
  br i1 %25, label %26, label %27

26:                                               ; preds = %3
  store i32 1, ptr %10, align 4
  br label %115

27:                                               ; preds = %3
  %28 = load ptr, ptr %4, align 8
  %29 = getelementptr inbounds nuw %struct._fragment_head, ptr %28, i32 0, i32 1
  %30 = load ptr, ptr %29, align 8
  %31 = icmp eq ptr %30, null
  br i1 %31, label %32, label %43

32:                                               ; preds = %27
  %33 = load ptr, ptr %5, align 8
  %34 = getelementptr inbounds nuw %struct._fragment_item, ptr %33, i32 0, i32 2
  %35 = load i32, ptr %34, align 4
  %36 = icmp ne i32 %35, 0
  br i1 %36, label %37, label %38

37:                                               ; preds = %32
  store i32 1, ptr %10, align 4
  br label %115

38:                                               ; preds = %32
  %39 = load ptr, ptr %5, align 8
  %40 = getelementptr inbounds nuw %struct._fragment_item, ptr %39, i32 0, i32 3
  %41 = load i32, ptr %40, align 8
  store i32 %41, ptr %9, align 4
  %42 = load ptr, ptr %5, align 8
  store ptr %42, ptr %8, align 8
  br label %67

43:                                               ; preds = %27
  %44 = load ptr, ptr %4, align 8
  %45 = getelementptr inbounds nuw %struct._fragment_head, ptr %44, i32 0, i32 3
  %46 = load i32, ptr %45, align 4
  %47 = load i32, ptr %7, align 4
  %48 = icmp ugt i32 %46, %47
  br i1 %48, label %49, label %53

49:                                               ; preds = %43
  %50 = load ptr, ptr %4, align 8
  %51 = getelementptr inbounds nuw %struct._fragment_head, ptr %50, i32 0, i32 3
  %52 = load i32, ptr %51, align 4
  br label %55

53:                                               ; preds = %43
  %54 = load i32, ptr %7, align 4
  br label %55

55:                                               ; preds = %53, %49
  %56 = phi i32 [ %52, %49 ], [ %54, %53 ]
  store i32 %56, ptr %9, align 4
  %57 = load i8, ptr %6, align 1, !range !13, !noundef !14
  %58 = trunc i8 %57 to i1
  br i1 %58, label %59, label %61

59:                                               ; preds = %55
  %60 = load ptr, ptr %5, align 8
  br label %65

61:                                               ; preds = %55
  %62 = load ptr, ptr %4, align 8
  %63 = getelementptr inbounds nuw %struct._fragment_head, ptr %62, i32 0, i32 1
  %64 = load ptr, ptr %63, align 8
  br label %65

65:                                               ; preds = %61, %59
  %66 = phi ptr [ %60, %59 ], [ %64, %61 ]
  store ptr %66, ptr %8, align 8
  br label %67

67:                                               ; preds = %65, %38
  br label %68

68:                                               ; preds = %67
  br label %69

69:                                               ; preds = %106, %68
  %70 = load ptr, ptr %8, align 8
  %71 = getelementptr inbounds nuw %struct._fragment_item, ptr %70, i32 0, i32 0
  %72 = load ptr, ptr %71, align 8
  %73 = icmp ne ptr %72, null
  br i1 %73, label %74, label %108

74:                                               ; preds = %69
  %75 = load ptr, ptr %8, align 8
  %76 = getelementptr inbounds nuw %struct._fragment_item, ptr %75, i32 0, i32 0
  %77 = load ptr, ptr %76, align 8
  %78 = getelementptr inbounds nuw %struct._fragment_item, ptr %77, i32 0, i32 2
  %79 = load i32, ptr %78, align 4
  %80 = load i32, ptr %9, align 4
  %81 = icmp ugt i32 %79, %80
  br i1 %81, label %82, label %83

82:                                               ; preds = %74
  br label %108

83:                                               ; preds = %74
  %84 = load ptr, ptr %8, align 8
  %85 = getelementptr inbounds nuw %struct._fragment_item, ptr %84, i32 0, i32 0
  %86 = load ptr, ptr %85, align 8
  store ptr %86, ptr %8, align 8
  %87 = load i32, ptr %9, align 4
  %88 = load ptr, ptr %8, align 8
  %89 = getelementptr inbounds nuw %struct._fragment_item, ptr %88, i32 0, i32 2
  %90 = load i32, ptr %89, align 4
  %91 = load ptr, ptr %8, align 8
  %92 = getelementptr inbounds nuw %struct._fragment_item, ptr %91, i32 0, i32 3
  %93 = load i32, ptr %92, align 8
  %94 = add i32 %90, %93
  %95 = icmp ugt i32 %87, %94
  br i1 %95, label %96, label %98

96:                                               ; preds = %83
  %97 = load i32, ptr %9, align 4
  br label %106

98:                                               ; preds = %83
  %99 = load ptr, ptr %8, align 8
  %100 = getelementptr inbounds nuw %struct._fragment_item, ptr %99, i32 0, i32 2
  %101 = load i32, ptr %100, align 4
  %102 = load ptr, ptr %8, align 8
  %103 = getelementptr inbounds nuw %struct._fragment_item, ptr %102, i32 0, i32 3
  %104 = load i32, ptr %103, align 8
  %105 = add i32 %101, %104
  br label %106

106:                                              ; preds = %98, %96
  %107 = phi i32 [ %97, %96 ], [ %105, %98 ]
  store i32 %107, ptr %9, align 4
  br label %69, !llvm.loop !37

108:                                              ; preds = %82, %69
  %109 = load ptr, ptr %8, align 8
  %110 = load ptr, ptr %4, align 8
  %111 = getelementptr inbounds nuw %struct._fragment_head, ptr %110, i32 0, i32 1
  store ptr %109, ptr %111, align 8
  %112 = load i32, ptr %9, align 4
  %113 = load ptr, ptr %4, align 8
  %114 = getelementptr inbounds nuw %struct._fragment_head, ptr %113, i32 0, i32 3
  store i32 %112, ptr %114, align 4
  store i32 0, ptr %10, align 4
  br label %115

115:                                              ; preds = %108, %37, %26
  call void @llvm.lifetime.end.p0(i64 4, ptr %9) #16
  call void @llvm.lifetime.end.p0(i64 8, ptr %8) #16
  call void @llvm.lifetime.end.p0(i64 4, ptr %7) #16
  %116 = load i32, ptr %10, align 4
  switch i32 %116, label %118 [
    i32 0, label %117
    i32 1, label %117
  ]

117:                                              ; preds = %115, %115
  ret void

118:                                              ; preds = %115
  unreachable
}

; Function Attrs: nounwind null_pointer_is_valid sspstrong uwtable
define internal void @MERGE_FRAG(ptr noundef %0, ptr noundef %1) #0 {
  %3 = alloca ptr, align 8
  %4 = alloca ptr, align 8
  %5 = alloca ptr, align 8
  %6 = alloca ptr, align 8
  %7 = alloca ptr, align 8
  %8 = alloca i8, align 1
  %9 = alloca i32, align 4
  store ptr %0, ptr %3, align 8
  store ptr %1, ptr %4, align 8
  call void @llvm.lifetime.start.p0(i64 8, ptr %5) #16
  call void @llvm.lifetime.start.p0(i64 8, ptr %6) #16
  call void @llvm.lifetime.start.p0(i64 8, ptr %7) #16
  %10 = load ptr, ptr %4, align 8
  store ptr %10, ptr %7, align 8
  call void @llvm.lifetime.start.p0(i64 1, ptr %8) #16
  %11 = load ptr, ptr %4, align 8
  %12 = icmp eq ptr %11, null
  br i1 %12, label %13, label %14

13:                                               ; preds = %2
  store i32 1, ptr %9, align 4
  br label %110

14:                                               ; preds = %2
  %15 = load ptr, ptr %4, align 8
  %16 = getelementptr inbounds nuw %struct._fragment_item, ptr %15, i32 0, i32 0
  %17 = load ptr, ptr %16, align 8
  %18 = icmp ne ptr %17, null
  %19 = zext i1 %18 to i8
  store i8 %19, ptr %8, align 1
  %20 = load ptr, ptr %3, align 8
  %21 = getelementptr inbounds nuw %struct._fragment_head, ptr %20, i32 0, i32 0
  %22 = load ptr, ptr %21, align 8
  %23 = icmp eq ptr %22, null
  br i1 %23, label %24, label %32

24:                                               ; preds = %14
  %25 = load ptr, ptr %4, align 8
  %26 = load ptr, ptr %3, align 8
  %27 = getelementptr inbounds nuw %struct._fragment_head, ptr %26, i32 0, i32 0
  store ptr %25, ptr %27, align 8
  %28 = load ptr, ptr %3, align 8
  %29 = load ptr, ptr %4, align 8
  %30 = load i8, ptr %8, align 1, !range !13, !noundef !14
  %31 = trunc i8 %30 to i1
  call void @update_first_gap(ptr noundef %28, ptr noundef %29, i1 noundef zeroext %31)
  store i32 1, ptr %9, align 4
  br label %110

32:                                               ; preds = %14
  %33 = load ptr, ptr %3, align 8
  %34 = getelementptr inbounds nuw %struct._fragment_head, ptr %33, i32 0, i32 1
  %35 = load ptr, ptr %34, align 8
  %36 = icmp ne ptr %35, null
  br i1 %36, label %37, label %51

37:                                               ; preds = %32
  %38 = load ptr, ptr %4, align 8
  %39 = getelementptr inbounds nuw %struct._fragment_item, ptr %38, i32 0, i32 2
  %40 = load i32, ptr %39, align 4
  %41 = load ptr, ptr %3, align 8
  %42 = getelementptr inbounds nuw %struct._fragment_head, ptr %41, i32 0, i32 1
  %43 = load ptr, ptr %42, align 8
  %44 = getelementptr inbounds nuw %struct._fragment_item, ptr %43, i32 0, i32 2
  %45 = load i32, ptr %44, align 4
  %46 = icmp uge i32 %40, %45
  br i1 %46, label %47, label %51

47:                                               ; preds = %37
  %48 = load ptr, ptr %3, align 8
  %49 = getelementptr inbounds nuw %struct._fragment_head, ptr %48, i32 0, i32 1
  %50 = load ptr, ptr %49, align 8
  store ptr %50, ptr %5, align 8
  br label %73

51:                                               ; preds = %37, %32
  %52 = load ptr, ptr %4, align 8
  %53 = getelementptr inbounds nuw %struct._fragment_item, ptr %52, i32 0, i32 2
  %54 = load i32, ptr %53, align 4
  %55 = load ptr, ptr %3, align 8
  %56 = getelementptr inbounds nuw %struct._fragment_head, ptr %55, i32 0, i32 0
  %57 = load ptr, ptr %56, align 8
  %58 = getelementptr inbounds nuw %struct._fragment_item, ptr %57, i32 0, i32 2
  %59 = load i32, ptr %58, align 4
  %60 = icmp ult i32 %54, %59
  br i1 %60, label %61, label %69

61:                                               ; preds = %51
  %62 = load ptr, ptr %3, align 8
  %63 = getelementptr inbounds nuw %struct._fragment_head, ptr %62, i32 0, i32 0
  %64 = load ptr, ptr %63, align 8
  store ptr %64, ptr %6, align 8
  %65 = load ptr, ptr %4, align 8
  %66 = load ptr, ptr %3, align 8
  %67 = getelementptr inbounds nuw %struct._fragment_head, ptr %66, i32 0, i32 0
  store ptr %65, ptr %67, align 8
  %68 = load ptr, ptr %6, align 8
  store ptr %68, ptr %4, align 8
  br label %69

69:                                               ; preds = %61, %51
  %70 = load ptr, ptr %3, align 8
  %71 = getelementptr inbounds nuw %struct._fragment_head, ptr %70, i32 0, i32 0
  %72 = load ptr, ptr %71, align 8
  store ptr %72, ptr %5, align 8
  br label %73

73:                                               ; preds = %69, %47
  br label %74

74:                                               ; preds = %98, %73
  %75 = load ptr, ptr %5, align 8
  %76 = getelementptr inbounds nuw %struct._fragment_item, ptr %75, i32 0, i32 0
  %77 = load ptr, ptr %76, align 8
  %78 = icmp ne ptr %77, null
  br i1 %78, label %79, label %102

79:                                               ; preds = %74
  %80 = load ptr, ptr %4, align 8
  %81 = getelementptr inbounds nuw %struct._fragment_item, ptr %80, i32 0, i32 2
  %82 = load i32, ptr %81, align 4
  %83 = load ptr, ptr %5, align 8
  %84 = getelementptr inbounds nuw %struct._fragment_item, ptr %83, i32 0, i32 0
  %85 = load ptr, ptr %84, align 8
  %86 = getelementptr inbounds nuw %struct._fragment_item, ptr %85, i32 0, i32 2
  %87 = load i32, ptr %86, align 4
  %88 = icmp ult i32 %82, %87
  br i1 %88, label %89, label %97

89:                                               ; preds = %79
  %90 = load ptr, ptr %5, align 8
  %91 = getelementptr inbounds nuw %struct._fragment_item, ptr %90, i32 0, i32 0
  %92 = load ptr, ptr %91, align 8
  store ptr %92, ptr %6, align 8
  %93 = load ptr, ptr %4, align 8
  %94 = load ptr, ptr %5, align 8
  %95 = getelementptr inbounds nuw %struct._fragment_item, ptr %94, i32 0, i32 0
  store ptr %93, ptr %95, align 8
  %96 = load ptr, ptr %6, align 8
  store ptr %96, ptr %4, align 8
  br label %97

97:                                               ; preds = %89, %79
  br label %98

98:                                               ; preds = %97
  %99 = load ptr, ptr %5, align 8
  %100 = getelementptr inbounds nuw %struct._fragment_item, ptr %99, i32 0, i32 0
  %101 = load ptr, ptr %100, align 8
  store ptr %101, ptr %5, align 8
  br label %74, !llvm.loop !42

102:                                              ; preds = %74
  %103 = load ptr, ptr %4, align 8
  %104 = load ptr, ptr %5, align 8
  %105 = getelementptr inbounds nuw %struct._fragment_item, ptr %104, i32 0, i32 0
  store ptr %103, ptr %105, align 8
  %106 = load ptr, ptr %3, align 8
  %107 = load ptr, ptr %7, align 8
  %108 = load i8, ptr %8, align 1, !range !13, !noundef !14
  %109 = trunc i8 %108 to i1
  call void @update_first_gap(ptr noundef %106, ptr noundef %107, i1 noundef zeroext %109)
  store i32 0, ptr %9, align 4
  br label %110

110:                                              ; preds = %102, %24, %13
  call void @llvm.lifetime.end.p0(i64 1, ptr %8) #16
  call void @llvm.lifetime.end.p0(i64 8, ptr %7) #16
  call void @llvm.lifetime.end.p0(i64 8, ptr %6) #16
  call void @llvm.lifetime.end.p0(i64 8, ptr %5) #16
  %111 = load i32, ptr %9, align 4
  switch i32 %111, label %113 [
    i32 0, label %112
    i32 1, label %112
  ]

112:                                              ; preds = %110, %110
  ret void

113:                                              ; preds = %110
  unreachable
}