; Function Attrs: nofree norecurse nosync nounwind null_pointer_is_valid sspstrong memory(readwrite, inaccessiblemem: none) uwtable
define internal fastcc void @MERGE_FRAG(ptr noundef captures(none) %0, ptr noundef nonnull %1) unnamed_addr #9 {
  %3 = load ptr, ptr %1, align 8
  %.not54 = icmp eq ptr %3, null
  %4 = load ptr, ptr %0, align 8
  %5 = icmp eq ptr %4, null
  br i1 %5, label %6, label %35

6:                                                ; preds = %2
  store ptr %1, ptr %0, align 8
  %7 = getelementptr inbounds nuw i8, ptr %1, i64 12
  %8 = load i32, ptr %7, align 4
  %9 = getelementptr inbounds nuw i8, ptr %1, i64 16
  %10 = load i32, ptr %9, align 8
  %11 = add i32 %10, %8
  %12 = getelementptr inbounds nuw i8, ptr %0, i64 20
  %13 = load i32, ptr %12, align 4
  %14 = icmp ugt i32 %8, %13
  br i1 %14, label %update_first_gap.exit, label %15

15:                                               ; preds = %6
  %16 = getelementptr inbounds nuw i8, ptr %0, i64 8
  %17 = load ptr, ptr %16, align 8
  %18 = icmp eq ptr %17, null
  br i1 %18, label %19, label %20

19:                                               ; preds = %15
  %.not.i = icmp eq i32 %8, 0
  br i1 %.not.i, label %21, label %update_first_gap.exit

20:                                               ; preds = %15
  %..i = tail call i32 @llvm.umax.i32(i32 %13, i32 %11)
  %spec.select.i = select i1 %.not54, ptr %17, ptr %1
  br label %21

21:                                               ; preds = %20, %19
  %.028.i = phi ptr [ %1, %19 ], [ %spec.select.i, %20 ]
  %.0.i = phi i32 [ %10, %19 ], [ %..i, %20 ]
  %22 = load ptr, ptr %.028.i, align 8
  %.not3637.i = icmp eq ptr %22, null
  br i1 %.not3637.i, label %._crit_edge.i, label %.lr.ph.i.preheader

.lr.ph.i.preheader:                               ; preds = %21
  %23 = getelementptr inbounds nuw i8, ptr %22, i64 12
  %24 = load i32, ptr %23, align 4
  %25 = icmp ugt i32 %24, %.0.i
  br i1 %25, label %._crit_edge.i, label %.lr.ph66

.lr.ph.i:                                         ; preds = %.lr.ph66
  %26 = getelementptr inbounds nuw i8, ptr %34, i64 12
  %27 = load i32, ptr %26, align 4
  %28 = icmp ugt i32 %27, %.1..i
  br i1 %28, label %._crit_edge.i, label %.lr.ph66, !llvm.loop !13

.lr.ph66:                                         ; preds = %.lr.ph.i.preheader, %.lr.ph.i
  %29 = phi i32 [ %27, %.lr.ph.i ], [ %24, %.lr.ph.i.preheader ]
  %.139.i65 = phi i32 [ %.1..i, %.lr.ph.i ], [ %.0.i, %.lr.ph.i.preheader ]
  %30 = phi ptr [ %34, %.lr.ph.i ], [ %22, %.lr.ph.i.preheader ]
  %31 = getelementptr inbounds nuw i8, ptr %30, i64 16
  %32 = load i32, ptr %31, align 8
  %33 = add i32 %32, %29
  %.1..i = tail call i32 @llvm.umax.i32(i32 %.139.i65, i32 %33)
  %34 = load ptr, ptr %30, align 8
  %.not36.i = icmp eq ptr %34, null
  br i1 %.not36.i, label %._crit_edge.i, label %.lr.ph.i, !llvm.loop !13

._crit_edge.i:                                    ; preds = %.lr.ph.i, %.lr.ph66, %.lr.ph.i.preheader, %21
  %.129.lcssa.i = phi ptr [ %.028.i, %21 ], [ %.028.i, %.lr.ph.i.preheader ], [ %30, %.lr.ph66 ], [ %30, %.lr.ph.i ]
  %.1.lcssa.i = phi i32 [ %.0.i, %21 ], [ %.0.i, %.lr.ph.i.preheader ], [ %.1..i, %.lr.ph66 ], [ %.1..i, %.lr.ph.i ]
  store ptr %.129.lcssa.i, ptr %16, align 8
  store i32 %.1.lcssa.i, ptr %12, align 4
  br label %update_first_gap.exit

35:                                               ; preds = %2
  %36 = getelementptr inbounds nuw i8, ptr %0, i64 8
  %37 = load ptr, ptr %36, align 8
  %.not = icmp eq ptr %37, null
  %.phi.trans.insert = getelementptr inbounds nuw i8, ptr %1, i64 12
  %.pre = load i32, ptr %.phi.trans.insert, align 4
  br i1 %.not, label %._crit_edge73, label %38

38:                                               ; preds = %35
  %39 = getelementptr inbounds nuw i8, ptr %37, i64 12
  %40 = load i32, ptr %39, align 4
  %.not37 = icmp ult i32 %.pre, %40
  br i1 %.not37, label %._crit_edge73, label %45

._crit_edge73:                                    ; preds = %35, %38
  %41 = getelementptr inbounds nuw i8, ptr %4, i64 12
  %42 = load i32, ptr %41, align 4
  %43 = icmp ult i32 %.pre, %42
  br i1 %43, label %44, label %45

44:                                               ; preds = %._crit_edge73
  store ptr %1, ptr %0, align 8
  br label %45

45:                                               ; preds = %._crit_edge73, %44, %38
  %.032 = phi ptr [ %37, %38 ], [ %1, %44 ], [ %4, %._crit_edge73 ]
  %.0 = phi ptr [ %1, %38 ], [ %4, %44 ], [ %1, %._crit_edge73 ]
  %46 = load ptr, ptr %.032, align 8
  %.not3855 = icmp eq ptr %46, null
  br i1 %.not3855, label %._crit_edge, label %.lr.ph

.lr.ph:                                           ; preds = %45, %54
  %47 = phi ptr [ %56, %54 ], [ %46, %45 ]
  %.257 = phi ptr [ %.3, %54 ], [ %.0, %45 ]
  %.13356 = phi ptr [ %55, %54 ], [ %.032, %45 ]
  %48 = getelementptr inbounds nuw i8, ptr %.257, i64 12
  %49 = load i32, ptr %48, align 4
  %50 = getelementptr inbounds nuw i8, ptr %47, i64 12
  %51 = load i32, ptr %50, align 4
  %52 = icmp ult i32 %49, %51
  br i1 %52, label %53, label %54

53:                                               ; preds = %.lr.ph
  store ptr %.257, ptr %.13356, align 8
  br label %54

54:                                               ; preds = %.lr.ph, %53
  %55 = phi ptr [ %.257, %53 ], [ %47, %.lr.ph ]
  %.3 = phi ptr [ %47, %53 ], [ %.257, %.lr.ph ]
  %56 = load ptr, ptr %55, align 8
  %.not38 = icmp eq ptr %56, null
  br i1 %.not38, label %._crit_edge, label %.lr.ph, !llvm.loop !48

._crit_edge:                                      ; preds = %54, %45
  %.133.lcssa = phi ptr [ %.032, %45 ], [ %55, %54 ]
  %.2.lcssa = phi ptr [ %.0, %45 ], [ %.3, %54 ]
  store ptr %.2.lcssa, ptr %.133.lcssa, align 8
  %57 = getelementptr inbounds nuw i8, ptr %1, i64 12
  %58 = load i32, ptr %57, align 4
  %59 = getelementptr inbounds nuw i8, ptr %1, i64 16
  %60 = load i32, ptr %59, align 8
  %61 = add i32 %60, %58
  %62 = getelementptr inbounds nuw i8, ptr %0, i64 20
  %63 = load i32, ptr %62, align 4
  %64 = icmp ugt i32 %58, %63
  br i1 %64, label %update_first_gap.exit, label %65

65:                                               ; preds = %._crit_edge
  %66 = load ptr, ptr %36, align 8
  %67 = icmp eq ptr %66, null
  br i1 %67, label %68, label %69

68:                                               ; preds = %65
  %.not.i52 = icmp eq i32 %58, 0
  br i1 %.not.i52, label %70, label %update_first_gap.exit

69:                                               ; preds = %65
  %..i39 = tail call i32 @llvm.umax.i32(i32 %63, i32 %61)
  %spec.select.i40 = select i1 %.not54, ptr %66, ptr %1
  br label %70

70:                                               ; preds = %69, %68
  %.028.i41 = phi ptr [ %1, %68 ], [ %spec.select.i40, %69 ]
  %.0.i42 = phi i32 [ %60, %68 ], [ %..i39, %69 ]
  %71 = load ptr, ptr %.028.i41, align 8
  %.not3637.i43 = icmp eq ptr %71, null
  br i1 %.not3637.i43, label %._crit_edge.i49, label %.lr.ph.i44.preheader

.lr.ph.i44.preheader:                             ; preds = %70
  %72 = getelementptr inbounds nuw i8, ptr %71, i64 12
  %73 = load i32, ptr %72, align 4
  %74 = icmp ugt i32 %73, %.0.i42
  br i1 %74, label %._crit_edge.i49, label %.lr.ph60

.lr.ph.i44:                                       ; preds = %.lr.ph60
  %75 = getelementptr inbounds nuw i8, ptr %83, i64 12
  %76 = load i32, ptr %75, align 4
  %77 = icmp ugt i32 %76, %.1..i47
  br i1 %77, label %._crit_edge.i49, label %.lr.ph60, !llvm.loop !13

.lr.ph60:                                         ; preds = %.lr.ph.i44.preheader, %.lr.ph.i44
  %78 = phi i32 [ %76, %.lr.ph.i44 ], [ %73, %.lr.ph.i44.preheader ]
  %.139.i4559 = phi i32 [ %.1..i47, %.lr.ph.i44 ], [ %.0.i42, %.lr.ph.i44.preheader ]
  %79 = phi ptr [ %83, %.lr.ph.i44 ], [ %71, %.lr.ph.i44.preheader ]
  %80 = getelementptr inbounds nuw i8, ptr %79, i64 16
  %81 = load i32, ptr %80, align 8
  %82 = add i32 %81, %78
  %.1..i47 = tail call i32 @llvm.umax.i32(i32 %.139.i4559, i32 %82)
  %83 = load ptr, ptr %79, align 8
  %.not36.i48 = icmp eq ptr %83, null
  br i1 %.not36.i48, label %._crit_edge.i49, label %.lr.ph.i44, !llvm.loop !13

._crit_edge.i49:                                  ; preds = %.lr.ph.i44, %.lr.ph60, %.lr.ph.i44.preheader, %70
  %.129.lcssa.i50 = phi ptr [ %.028.i41, %70 ], [ %.028.i41, %.lr.ph.i44.preheader ], [ %79, %.lr.ph60 ], [ %79, %.lr.ph.i44 ]
  %.1.lcssa.i51 = phi i32 [ %.0.i42, %70 ], [ %.0.i42, %.lr.ph.i44.preheader ], [ %.1..i47, %.lr.ph60 ], [ %.1..i47, %.lr.ph.i44 ]
  store ptr %.129.lcssa.i50, ptr %36, align 8
  store i32 %.1.lcssa.i51, ptr %62, align 4
  br label %update_first_gap.exit

update_first_gap.exit:                            ; preds = %._crit_edge.i49, %68, %._crit_edge, %._crit_edge.i, %19, %6
  ret void
}